target datalayout = "e-m:e-p270:32:32-p271:32:32-p272:64:64-i64:64-i128:128-f80:128-n8:16:32:64-S128"
target triple = "x86_64-pc-linux-gnu"

%class.Node_List = type <{ %class.Node_Array, i32, [4 x i8] }>
%class.Node_Array = type { ptr, i32, ptr }
%class.IdealLoopTree = type <{ ptr, ptr, ptr, ptr, ptr, ptr, i32, i32, %class.Node_List, i16, i8, [5 x i8], ptr, ptr, i8, [7 x i8] }>
%class.Node = type <{ ptr, ptr, ptr, i32, i32, i32, i32, i32, i32, i32, [4 x i8] }>
%class.Predicates = type { ptr, %class.PredicateBlock, %class.PredicateBlock, %class.PredicateBlock, ptr }
%class.PredicateBlock = type { [8 x i8], %class.ParsePredicate, ptr }
%class.ParsePredicate = type { ptr, ptr, ptr }

; Function Attrs: mustprogress nounwind uwtable
define linkonce_odr hidden noundef ptr @_ZNK4Node17as_ParsePredicateEv(ptr noundef nonnull align 8 dereferenceable(52) %0) #1 comdat align 2 {
  %2 = alloca ptr, align 8
  store ptr %0, ptr %2, align 8
  %3 = load ptr, ptr %2, align 8
  ret ptr %3
}

; Function Attrs: mustprogress nounwind uwtable
define linkonce_odr hidden noundef ptr @_ZNK14ParsePredicate12success_projEv(ptr noundef nonnull align 8 dereferenceable(24) %0) #1 comdat align 2 {
  %2 = alloca ptr, align 8
  store ptr %0, ptr %2, align 8
  %3 = load ptr, ptr %2, align 8
  %4 = getelementptr inbounds %class.ParsePredicate, ptr %3, i32 0, i32 0
  %5 = load ptr, ptr %4, align 8
  ret ptr %5
}

; Function Attrs: mustprogress nounwind uwtable
define linkonce_odr hidden void @_ZN14PhaseIdealLoop44check_cloned_parse_predicate_for_unswitchingEPK4Nodeb(ptr noundef %0, i1 noundef zeroext %1) #1 comdat align 2 {
  %3 = alloca ptr, align 8
  %4 = alloca i8, align 1
  store ptr %0, ptr %3, align 8
  %5 = zext i1 %1 to i8
  store i8 %5, ptr %4, align 1
  ret void
}

; Function Attrs: mustprogress nounwind uwtable
define hidden noundef ptr @_ZN14PhaseIdealLoop40clone_parse_predicate_to_unswitched_loopEP10IfTrueNodeP4NodeN14Deoptimization11DeoptReasonEb(ptr noundef nonnull align 8 dereferenceable(237) %0, ptr noundef %1, ptr noundef %2, i32 noundef %3, i1 noundef zeroext %4) #1 align 2 {
  %6 = alloca ptr, align 8
  %7 = alloca ptr, align 8
  %8 = alloca ptr, align 8
  %9 = alloca i32, align 4
  %10 = alloca i8, align 1
  %11 = alloca ptr, align 8
  %12 = alloca ptr, align 8
  store ptr %0, ptr %6, align 8
  store ptr %1, ptr %7, align 8
  store ptr %2, ptr %8, align 8
  store i32 %3, ptr %9, align 4
  %13 = zext i1 %4 to i8
  store i8 %13, ptr %10, align 1
  %14 = load ptr, ptr %6, align 8
  %15 = load ptr, ptr %7, align 8
  %16 = load ptr, ptr %8, align 8
  %17 = load i32, ptr %9, align 4
  %18 = load i8, ptr %10, align 1
  %19 = trunc i8 %18 to i1
  %20 = call noundef ptr @_ZN14PhaseIdealLoop27create_new_if_for_predicateEP10IfTrueNodeP4NodeN14Deoptimization11DeoptReasonEib(ptr noundef nonnull align 8 dereferenceable(237) %14, ptr noundef %15, ptr noundef %16, i32 noundef %17, i32 noundef 272, i1 noundef zeroext %19)
  store ptr %20, ptr %11, align 8
  %21 = load ptr, ptr %11, align 8
  %22 = call noundef ptr @_ZNK4Node2inEj(ptr noundef nonnull align 8 dereferenceable(52) %21, i32 noundef 0)
  %23 = call noundef ptr @_ZNK4Node17as_ParsePredicateEv(ptr noundef nonnull align 8 dereferenceable(52) %22)
  store ptr %23, ptr %12, align 8
  %24 = load ptr, ptr %11, align 8
  ret ptr %24
}

; Function Attrs: mustprogress nounwind uwtable
define linkonce_odr hidden noundef zeroext i1 @_ZNK14ParsePredicate8is_validEv(ptr noundef nonnull align 8 dereferenceable(24) %0) #1 comdat align 2 {
  %2 = alloca ptr, align 8
  store ptr %0, ptr %2, align 8
  %3 = load ptr, ptr %2, align 8
  %4 = getelementptr inbounds %class.ParsePredicate, ptr %3, i32 0, i32 1
  %5 = load ptr, ptr %4, align 8
  %6 = icmp ne ptr %5, null
  ret i1 %6
}

; Function Attrs: mustprogress nounwind uwtable
define linkonce_odr hidden noundef ptr @_ZNK4Node9as_IfTrueEv(ptr noundef nonnull align 8 dereferenceable(52) %0) #1 comdat align 2 {
  %2 = alloca ptr, align 8
  store ptr %0, ptr %2, align 8
  %3 = load ptr, ptr %2, align 8
  ret ptr %3
}

; Function Attrs: mustprogress nounwind uwtable
define linkonce_odr hidden noundef ptr @_ZNK14PredicateBlock28parse_predicate_success_projEv(ptr noundef nonnull align 8 dereferenceable(40) %0) #1 comdat align 2 {
  %2 = alloca ptr, align 8
  store ptr %0, ptr %2, align 8
  %3 = load ptr, ptr %2, align 8
  %4 = getelementptr inbounds %class.PredicateBlock, ptr %3, i32 0, i32 1
  %5 = call noundef ptr @_ZNK14ParsePredicate12success_projEv(ptr noundef nonnull align 8 dereferenceable(24) %4)
  ret ptr %5
}

; Function Attrs: mustprogress nounwind uwtable
define hidden void @_ZN14PhaseIdealLoop41clone_parse_predicate_to_unswitched_loopsEPK14PredicateBlockN14Deoptimization11DeoptReasonERP10IfProjNodeS7_(ptr noundef nonnull align 8 dereferenceable(237) %0, ptr noundef %1, i32 noundef %2, ptr noundef nonnull align 8 dereferenceable(8) %3, ptr noundef nonnull align 8 dereferenceable(8) %4) #1 align 2 {
  %6 = alloca ptr, align 8
  %7 = alloca ptr, align 8
  %8 = alloca i32, align 4
  %9 = alloca ptr, align 8
  %10 = alloca ptr, align 8
  %11 = alloca ptr, align 8
  store ptr %0, ptr %6, align 8
  store ptr %1, ptr %7, align 8
  store i32 %2, ptr %8, align 4
  store ptr %3, ptr %9, align 8
  store ptr %4, ptr %10, align 8
  %12 = load ptr, ptr %6, align 8
  %13 = load ptr, ptr %7, align 8
  %14 = call noundef ptr @_ZNK14PredicateBlock28parse_predicate_success_projEv(ptr noundef nonnull align 8 dereferenceable(40) %13)
  store ptr %14, ptr %11, align 8
  %15 = load ptr, ptr %11, align 8
  %16 = load ptr, ptr %9, align 8
  %17 = load ptr, ptr %16, align 8
  %18 = load i32, ptr %8, align 4
  %19 = call noundef ptr @_ZN14PhaseIdealLoop40clone_parse_predicate_to_unswitched_loopEP10IfTrueNodeP4NodeN14Deoptimization11DeoptReasonEb(ptr noundef nonnull align 8 dereferenceable(237) %12, ptr noundef %15, ptr noundef %17, i32 noundef %18, i1 noundef zeroext false)
  %20 = load ptr, ptr %9, align 8
  store ptr %19, ptr %20, align 8
  %21 = load ptr, ptr %9, align 8
  %22 = load ptr, ptr %21, align 8
  call void @_ZN14PhaseIdealLoop44check_cloned_parse_predicate_for_unswitchingEPK4Nodeb(ptr noundef %22, i1 noundef zeroext true)
  %23 = load ptr, ptr %11, align 8
  %24 = load ptr, ptr %10, align 8
  %25 = load ptr, ptr %24, align 8
  %26 = load i32, ptr %8, align 4
  %27 = call noundef ptr @_ZN14PhaseIdealLoop40clone_parse_predicate_to_unswitched_loopEP10IfTrueNodeP4NodeN14Deoptimization11DeoptReasonEb(ptr noundef nonnull align 8 dereferenceable(237) %12, ptr noundef %23, ptr noundef %25, i32 noundef %26, i1 noundef zeroext true)
  %28 = load ptr, ptr %10, align 8
  store ptr %27, ptr %28, align 8
  %29 = load ptr, ptr %10, align 8
  %30 = load ptr, ptr %29, align 8
  call void @_ZN14PhaseIdealLoop44check_cloned_parse_predicate_for_unswitchingEPK4Nodeb(ptr noundef %30, i1 noundef zeroext false)
  ret void
}

; Function Attrs: mustprogress nounwind uwtable
define linkonce_odr hidden noundef zeroext i1 @_ZNK4Node14is_CountedLoopEv(ptr noundef nonnull align 8 dereferenceable(52) %0) #1 comdat align 2 {
  %2 = alloca ptr, align 8
  store ptr %0, ptr %2, align 8
  %3 = load ptr, ptr %2, align 8
  %4 = getelementptr inbounds %class.Node, ptr %3, i32 0, i32 8
  %5 = load i32, ptr %4, align 4
  %6 = and i32 %5, 1023
  %7 = icmp eq i32 %6, 864
  ret i1 %7
}

; Function Attrs: mustprogress nounwind uwtable
define linkonce_odr hidden noundef zeroext i1 @_ZNK14PredicateBlock19has_parse_predicateEv(ptr noundef nonnull align 8 dereferenceable(40) %0) #1 comdat align 2 {
  %2 = alloca ptr, align 8
  store ptr %0, ptr %2, align 8
  %3 = load ptr, ptr %2, align 8
  %4 = getelementptr inbounds %class.PredicateBlock, ptr %3, i32 0, i32 1
  %5 = call noundef zeroext i1 @_ZNK14ParsePredicate8is_validEv(ptr noundef nonnull align 8 dereferenceable(24) %4)
  ret i1 %5
}

; Function Attrs: mustprogress nounwind uwtable
define linkonce_odr hidden noundef ptr @_ZNK10Predicates32loop_limit_check_predicate_blockEv(ptr noundef nonnull align 8 dereferenceable(136) %0) #1 comdat align 2 {
  %2 = alloca ptr, align 8
  store ptr %0, ptr %2, align 8
  %3 = load ptr, ptr %2, align 8
  %4 = getelementptr inbounds %class.Predicates, ptr %3, i32 0, i32 1
  ret ptr %4
}

; Function Attrs: mustprogress nounwind uwtable
define linkonce_odr hidden noundef ptr @_ZNK10Predicates29profiled_loop_predicate_blockEv(ptr noundef nonnull align 8 dereferenceable(136) %0) #1 comdat align 2 {
  %2 = alloca ptr, align 8
  store ptr %0, ptr %2, align 8
  %3 = load ptr, ptr %2, align 8
  %4 = getelementptr inbounds %class.Predicates, ptr %3, i32 0, i32 2
  ret ptr %4
}

; Function Attrs: mustprogress nounwind uwtable
define hidden void @_ZN14PhaseIdealLoop52clone_loop_predication_predicates_to_unswitched_loopEP13IdealLoopTreeRK9Node_ListPK14PredicateBlockN14Deoptimization11DeoptReasonERP10IfProjNodeSC_(ptr noundef nonnull align 8 dereferenceable(237) %0, ptr noundef %1, ptr noundef nonnull align 8 dereferenceable(28) %2, ptr noundef %3, i32 noundef %4, ptr noundef nonnull align 8 dereferenceable(8) %5, ptr noundef nonnull align 8 dereferenceable(8) %6) #1 align 2 {
  %8 = alloca ptr, align 8
  %9 = alloca ptr, align 8
  %10 = alloca ptr, align 8
  %11 = alloca ptr, align 8
  %12 = alloca i32, align 4
  %13 = alloca ptr, align 8
  %14 = alloca ptr, align 8
  store ptr %0, ptr %8, align 8
  store ptr %1, ptr %9, align 8
  store ptr %2, ptr %10, align 8
  store ptr %3, ptr %11, align 8
  store i32 %4, ptr %12, align 4
  store ptr %5, ptr %13, align 8
  store ptr %6, ptr %14, align 8
  %15 = load ptr, ptr %8, align 8
  %16 = load ptr, ptr %11, align 8
  %17 = call noundef zeroext i1 @_ZNK14PredicateBlock19has_parse_predicateEv(ptr noundef nonnull align 8 dereferenceable(40) %16)
  br i1 %17, label %18, label %34

18:                                               ; preds = %7
  %19 = load ptr, ptr %11, align 8
  %20 = load i32, ptr %12, align 4
  %21 = load ptr, ptr %13, align 8
  %22 = load ptr, ptr %14, align 8
  call void @_ZN14PhaseIdealLoop41clone_parse_predicate_to_unswitched_loopsEPK14PredicateBlockN14Deoptimization11DeoptReasonERP10IfProjNodeS7_(ptr noundef nonnull align 8 dereferenceable(237) %15, ptr noundef %19, i32 noundef %20, ptr noundef nonnull align 8 dereferenceable(8) %21, ptr noundef nonnull align 8 dereferenceable(8) %22)
  %23 = load ptr, ptr %9, align 8
  %24 = load ptr, ptr %10, align 8
  %25 = load i32, ptr %12, align 4
  %26 = load ptr, ptr %11, align 8
  %27 = call noundef ptr @_ZNK14PredicateBlock28parse_predicate_success_projEv(ptr noundef nonnull align 8 dereferenceable(40) %26)
  %28 = load ptr, ptr %13, align 8
  %29 = load ptr, ptr %28, align 8
  %30 = call noundef ptr @_ZNK4Node9as_IfTrueEv(ptr noundef nonnull align 8 dereferenceable(52) %29)
  %31 = load ptr, ptr %14, align 8
  %32 = load ptr, ptr %31, align 8
  %33 = call noundef ptr @_ZNK4Node9as_IfTrueEv(ptr noundef nonnull align 8 dereferenceable(52) %32)
  call void @_ZN14PhaseIdealLoop45clone_assertion_predicates_to_unswitched_loopEP13IdealLoopTreeRK9Node_ListN14Deoptimization11DeoptReasonEP10IfProjNodeP10IfTrueNodeSA_(ptr noundef nonnull align 8 dereferenceable(237) %15, ptr noundef %23, ptr noundef nonnull align 8 dereferenceable(28) %24, i32 noundef %25, ptr noundef %27, ptr noundef %30, ptr noundef %33)
  br label %34

34:                                               ; preds = %18, %7
  ret void
}

; Function Attrs: mustprogress nounwind uwtable
define linkonce_odr hidden noundef ptr @_ZNK10Predicates20loop_predicate_blockEv(ptr noundef nonnull align 8 dereferenceable(136) %0) #1 comdat align 2 {
  %2 = alloca ptr, align 8
  store ptr %0, ptr %2, align 8
  %3 = load ptr, ptr %2, align 8
  %4 = getelementptr inbounds %class.Predicates, ptr %3, i32 0, i32 3
  ret ptr %4
}

; Function Attrs: mustprogress nounwind uwtable
define linkonce_odr hidden noundef ptr @_ZNK4Node2inEj(ptr noundef nonnull align 8 dereferenceable(52) %0, i32 noundef %1) #1 comdat align 2 {
  %3 = alloca ptr, align 8
  %4 = alloca i32, align 4
  store ptr %0, ptr %3, align 8
  store i32 %1, ptr %4, align 4
  %5 = load ptr, ptr %3, align 8
  %6 = getelementptr inbounds %class.Node, ptr %5, i32 0, i32 1
  %7 = load ptr, ptr %6, align 8
  %8 = load i32, ptr %4, align 4
  %9 = zext i32 %8 to i64
  %10 = getelementptr inbounds ptr, ptr %7, i64 %9
  %11 = load ptr, ptr %10, align 8
  ret ptr %11
}

; Function Attrs: mustprogress nounwind uwtable
define linkonce_odr hidden noundef ptr @_ZNK4Node7as_LoopEv(ptr noundef nonnull align 8 dereferenceable(52) %0) #1 comdat align 2 {
  %2 = alloca ptr, align 8
  store ptr %0, ptr %2, align 8
  %3 = load ptr, ptr %2, align 8
  ret ptr %3
}

; Function Attrs: mustprogress nounwind uwtable
define hidden void @_ZN14PhaseIdealLoop55clone_parse_and_assertion_predicates_to_unswitched_loopEP13IdealLoopTreeR9Node_ListRP10IfProjNodeS6_(ptr noundef nonnull align 8 dereferenceable(237) %0, ptr noundef %1, ptr noundef nonnull align 8 dereferenceable(28) %2, ptr noundef nonnull align 8 dereferenceable(8) %3, ptr noundef nonnull align 8 dereferenceable(8) %4) #1 align 2 {
  %6 = alloca ptr, align 8
  %7 = alloca ptr, align 8
  %8 = alloca ptr, align 8
  %9 = alloca ptr, align 8
  %10 = alloca ptr, align 8
  %11 = alloca ptr, align 8
  %12 = alloca ptr, align 8
  %13 = alloca %class.Predicates, align 8
  %14 = alloca ptr, align 8
  store ptr %0, ptr %6, align 8
  store ptr %1, ptr %7, align 8
  store ptr %2, ptr %8, align 8
  store ptr %3, ptr %9, align 8
  store ptr %4, ptr %10, align 8
  %15 = load ptr, ptr %6, align 8
  %16 = load ptr, ptr %7, align 8
  %17 = getelementptr inbounds %class.IdealLoopTree, ptr %16, i32 0, i32 3
  %18 = load ptr, ptr %17, align 8
  %19 = call noundef ptr @_ZNK4Node7as_LoopEv(ptr noundef nonnull align 8 dereferenceable(52) %18)
  store ptr %19, ptr %11, align 8
  %20 = load ptr, ptr %11, align 8
  %21 = load ptr, ptr %20, align 8
  %22 = getelementptr inbounds ptr, ptr %21, i64 24
  %23 = load ptr, ptr %22, align 8
  %24 = call noundef ptr %23(ptr noundef nonnull align 8 dereferenceable(72) %20, i32 noundef 1)
  %25 = call noundef ptr @_ZNK4Node2inEj(ptr noundef nonnull align 8 dereferenceable(52) %24, i32 noundef 1)
  store ptr %25, ptr %12, align 8
  %26 = load ptr, ptr %12, align 8
  call void @_ZN10PredicatesC2EP4Node(ptr noundef nonnull align 8 dereferenceable(136) %13, ptr noundef %26)
  %27 = load ptr, ptr %7, align 8
  %28 = load ptr, ptr %8, align 8
  %29 = call noundef ptr @_ZNK10Predicates20loop_predicate_blockEv(ptr noundef nonnull align 8 dereferenceable(136) %13)
  %30 = load ptr, ptr %9, align 8
  %31 = load ptr, ptr %10, align 8
  call void @_ZN14PhaseIdealLoop52clone_loop_predication_predicates_to_unswitched_loopEP13IdealLoopTreeRK9Node_ListPK14PredicateBlockN14Deoptimization11DeoptReasonERP10IfProjNodeSC_(ptr noundef nonnull align 8 dereferenceable(237) %15, ptr noundef %27, ptr noundef nonnull align 8 dereferenceable(28) %28, ptr noundef %29, i32 noundef 17, ptr noundef nonnull align 8 dereferenceable(8) %30, ptr noundef nonnull align 8 dereferenceable(8) %31)
  %32 = load ptr, ptr %7, align 8
  %33 = load ptr, ptr %8, align 8
  %34 = call noundef ptr @_ZNK10Predicates29profiled_loop_predicate_blockEv(ptr noundef nonnull align 8 dereferenceable(136) %13)
  %35 = load ptr, ptr %9, align 8
  %36 = load ptr, ptr %10, align 8
  call void @_ZN14PhaseIdealLoop52clone_loop_predication_predicates_to_unswitched_loopEP13IdealLoopTreeRK9Node_ListPK14PredicateBlockN14Deoptimization11DeoptReasonERP10IfProjNodeSC_(ptr noundef nonnull align 8 dereferenceable(237) %15, ptr noundef %32, ptr noundef nonnull align 8 dereferenceable(28) %33, ptr noundef %34, i32 noundef 8, ptr noundef nonnull align 8 dereferenceable(8) %35, ptr noundef nonnull align 8 dereferenceable(8) %36)
  %37 = call noundef ptr @_ZNK10Predicates32loop_limit_check_predicate_blockEv(ptr noundef nonnull align 8 dereferenceable(136) %13)
  store ptr %37, ptr %14, align 8
  %38 = load ptr, ptr %14, align 8
  %39 = call noundef zeroext i1 @_ZNK14PredicateBlock19has_parse_predicateEv(ptr noundef nonnull align 8 dereferenceable(40) %38)
  br i1 %39, label %40, label %47

40:                                               ; preds = %5
  %41 = load ptr, ptr %11, align 8
  %42 = call noundef zeroext i1 @_ZNK4Node14is_CountedLoopEv(ptr noundef nonnull align 8 dereferenceable(52) %41)
  br i1 %42, label %47, label %43

43:                                               ; preds = %40
  %44 = load ptr, ptr %14, align 8
  %45 = load ptr, ptr %9, align 8
  %46 = load ptr, ptr %10, align 8
  call void @_ZN14PhaseIdealLoop41clone_parse_predicate_to_unswitched_loopsEPK14PredicateBlockN14Deoptimization11DeoptReasonERP10IfProjNodeS7_(ptr noundef nonnull align 8 dereferenceable(237) %15, ptr noundef %44, i32 noundef 18, ptr noundef nonnull align 8 dereferenceable(8) %45, ptr noundef nonnull align 8 dereferenceable(8) %46)
  br label %47

47:                                               ; preds = %43, %40, %5
  ret void
}