; Function Attrs: mustprogress nounwind uwtable
define hidden void @_ZN14PhaseIdealLoop55clone_parse_and_assertion_predicates_to_unswitched_loopEP13IdealLoopTreeR9Node_ListRP10IfProjNodeS6_(ptr noundef nonnull align 8 dereferenceable(237) %0, ptr noundef %1, ptr nocapture noundef nonnull readonly align 8 dereferenceable(28) %2, ptr nocapture noundef nonnull align 8 dereferenceable(8) %3, ptr nocapture noundef nonnull align 8 dereferenceable(8) %4) local_unnamed_addr #0 align 2 {
  %6 = alloca %class.Predicates, align 8
  %7 = getelementptr inbounds i8, ptr %1, i64 24
  %8 = load ptr, ptr %7, align 8
  %9 = load ptr, ptr %8, align 8
  %10 = getelementptr inbounds i8, ptr %9, i64 192
  %11 = load ptr, ptr %10, align 8
  %12 = tail call noundef ptr %11(ptr noundef nonnull align 8 dereferenceable(72) %8, i32 noundef 1) #8
  %13 = getelementptr inbounds i8, ptr %12, i64 8
  %14 = load ptr, ptr %13, align 8
  %15 = getelementptr inbounds i8, ptr %14, i64 8
  %16 = load ptr, ptr %15, align 8
  call void @_ZN10PredicatesC2EP4Node(ptr noundef nonnull align 8 dereferenceable(136) %6, ptr noundef %16)
  %17 = getelementptr inbounds i8, ptr %6, i64 104
  %18 = load ptr, ptr %17, align 8
  %.not.i = icmp eq ptr %18, null
  br i1 %.not.i, label %_ZN14PhaseIdealLoop52clone_loop_predication_predicates_to_unswitched_loopEP13IdealLoopTreeRK9Node_ListPK14PredicateBlockN14Deoptimization11DeoptReasonERP10IfProjNodeSC_.exit, label %19

19:                                               ; preds = %5
  %20 = getelementptr inbounds i8, ptr %6, i64 96
  %21 = load ptr, ptr %20, align 8
  %22 = load ptr, ptr %3, align 8
  %23 = call noundef ptr @_ZN14PhaseIdealLoop27create_new_if_for_predicateEP10IfTrueNodeP4NodeN14Deoptimization11DeoptReasonEib(ptr noundef nonnull align 8 dereferenceable(237) %0, ptr noundef readonly %21, ptr noundef %22, i32 noundef 17, i32 noundef 272, i1 noundef zeroext false)
  store ptr %23, ptr %3, align 8
  %24 = load ptr, ptr %4, align 8
  %25 = call noundef ptr @_ZN14PhaseIdealLoop27create_new_if_for_predicateEP10IfTrueNodeP4NodeN14Deoptimization11DeoptReasonEib(ptr noundef nonnull align 8 dereferenceable(237) %0, ptr noundef readonly %21, ptr noundef %24, i32 noundef 17, i32 noundef 272, i1 noundef zeroext true)
  store ptr %25, ptr %4, align 8
  %26 = load ptr, ptr %20, align 8
  %27 = load ptr, ptr %3, align 8
  call void @_ZN14PhaseIdealLoop45clone_assertion_predicates_to_unswitched_loopEP13IdealLoopTreeRK9Node_ListN14Deoptimization11DeoptReasonEP10IfProjNodeP10IfTrueNodeSA_(ptr noundef nonnull align 8 dereferenceable(237) %0, ptr noundef nonnull %1, ptr noundef nonnull readonly align 8 dereferenceable(28) %2, i32 noundef 17, ptr noundef %26, ptr noundef %27, ptr noundef %25)
  br label %_ZN14PhaseIdealLoop52clone_loop_predication_predicates_to_unswitched_loopEP13IdealLoopTreeRK9Node_ListPK14PredicateBlockN14Deoptimization11DeoptReasonERP10IfProjNodeSC_.exit

_ZN14PhaseIdealLoop52clone_loop_predication_predicates_to_unswitched_loopEP13IdealLoopTreeRK9Node_ListPK14PredicateBlockN14Deoptimization11DeoptReasonERP10IfProjNodeSC_.exit: ; preds = %5, %19
  %28 = getelementptr inbounds i8, ptr %6, i64 64
  %29 = load ptr, ptr %28, align 8
  %.not.i17 = icmp eq ptr %29, null
  br i1 %.not.i17, label %_ZN14PhaseIdealLoop52clone_loop_predication_predicates_to_unswitched_loopEP13IdealLoopTreeRK9Node_ListPK14PredicateBlockN14Deoptimization11DeoptReasonERP10IfProjNodeSC_.exit18, label %30

30:                                               ; preds = %_ZN14PhaseIdealLoop52clone_loop_predication_predicates_to_unswitched_loopEP13IdealLoopTreeRK9Node_ListPK14PredicateBlockN14Deoptimization11DeoptReasonERP10IfProjNodeSC_.exit
  %31 = getelementptr inbounds i8, ptr %6, i64 56
  %32 = load ptr, ptr %31, align 8
  %33 = load ptr, ptr %3, align 8
  %34 = call noundef ptr @_ZN14PhaseIdealLoop27create_new_if_for_predicateEP10IfTrueNodeP4NodeN14Deoptimization11DeoptReasonEib(ptr noundef nonnull align 8 dereferenceable(237) %0, ptr noundef readonly %32, ptr noundef %33, i32 noundef 8, i32 noundef 272, i1 noundef zeroext false)
  store ptr %34, ptr %3, align 8
  %35 = load ptr, ptr %4, align 8
  %36 = call noundef ptr @_ZN14PhaseIdealLoop27create_new_if_for_predicateEP10IfTrueNodeP4NodeN14Deoptimization11DeoptReasonEib(ptr noundef nonnull align 8 dereferenceable(237) %0, ptr noundef readonly %32, ptr noundef %35, i32 noundef 8, i32 noundef 272, i1 noundef zeroext true)
  store ptr %36, ptr %4, align 8
  %37 = load ptr, ptr %31, align 8
  %38 = load ptr, ptr %3, align 8
  call void @_ZN14PhaseIdealLoop45clone_assertion_predicates_to_unswitched_loopEP13IdealLoopTreeRK9Node_ListN14Deoptimization11DeoptReasonEP10IfProjNodeP10IfTrueNodeSA_(ptr noundef nonnull align 8 dereferenceable(237) %0, ptr noundef nonnull %1, ptr noundef nonnull readonly align 8 dereferenceable(28) %2, i32 noundef 8, ptr noundef %37, ptr noundef %38, ptr noundef %36)
  br label %_ZN14PhaseIdealLoop52clone_loop_predication_predicates_to_unswitched_loopEP13IdealLoopTreeRK9Node_ListPK14PredicateBlockN14Deoptimization11DeoptReasonERP10IfProjNodeSC_.exit18

_ZN14PhaseIdealLoop52clone_loop_predication_predicates_to_unswitched_loopEP13IdealLoopTreeRK9Node_ListPK14PredicateBlockN14Deoptimization11DeoptReasonERP10IfProjNodeSC_.exit18: ; preds = %_ZN14PhaseIdealLoop52clone_loop_predication_predicates_to_unswitched_loopEP13IdealLoopTreeRK9Node_ListPK14PredicateBlockN14Deoptimization11DeoptReasonERP10IfProjNodeSC_.exit, %30
  %39 = getelementptr inbounds i8, ptr %6, i64 24
  %40 = load ptr, ptr %39, align 8
  %.not = icmp eq ptr %40, null
  br i1 %.not, label %53, label %41

41:                                               ; preds = %_ZN14PhaseIdealLoop52clone_loop_predication_predicates_to_unswitched_loopEP13IdealLoopTreeRK9Node_ListPK14PredicateBlockN14Deoptimization11DeoptReasonERP10IfProjNodeSC_.exit18
  %42 = getelementptr inbounds i8, ptr %8, i64 44
  %43 = load i32, ptr %42, align 4
  %44 = and i32 %43, 1023
  %45 = icmp eq i32 %44, 864
  br i1 %45, label %53, label %46

46:                                               ; preds = %41
  %47 = getelementptr inbounds i8, ptr %6, i64 16
  %48 = load ptr, ptr %47, align 8
  %49 = load ptr, ptr %3, align 8
  %50 = call noundef ptr @_ZN14PhaseIdealLoop27create_new_if_for_predicateEP10IfTrueNodeP4NodeN14Deoptimization11DeoptReasonEib(ptr noundef nonnull align 8 dereferenceable(237) %0, ptr noundef readonly %48, ptr noundef %49, i32 noundef 18, i32 noundef 272, i1 noundef zeroext false)
  store ptr %50, ptr %3, align 8
  %51 = load ptr, ptr %4, align 8
  %52 = call noundef ptr @_ZN14PhaseIdealLoop27create_new_if_for_predicateEP10IfTrueNodeP4NodeN14Deoptimization11DeoptReasonEib(ptr noundef nonnull align 8 dereferenceable(237) %0, ptr noundef readonly %48, ptr noundef %51, i32 noundef 18, i32 noundef 272, i1 noundef zeroext true)
  store ptr %52, ptr %4, align 8
  br label %53

53:                                               ; preds = %46, %41, %_ZN14PhaseIdealLoop52clone_loop_predication_predicates_to_unswitched_loopEP13IdealLoopTreeRK9Node_ListPK14PredicateBlockN14Deoptimization11DeoptReasonERP10IfProjNodeSC_.exit18
  ret void
}